EXPORTS
    Library_setup @1
    _Z15decoder_performPl @2
    _Z15encoder_performPl @3
    _Z16binaural_performPl @4
    _Z17wavPlayer_performPl @5
    _Z22ambiToBinaural_performPl @6
    _Z23ambisonicReverb_performPl @7
    _Z24ambisonicRotator_performPl @8
    _ZN10AudioGraph10removeNodeEi @9
    _ZN10AudioGraph11s_idCounterE @10 DATA
    _ZN10AudioGraph12getCurrentIdEv @11
    _ZN10AudioGraph12getNodeForIdEi @12
    _ZN10AudioGraph14resetIdCounterEv @13
    _ZN10AudioGraph7addNodeEP18AudioProcessorBase @14
    _ZN10AudioGraph7connectEii @15
    _ZN10AudioGraph9getNextIdEv @16
    _ZN10AudioGraphC1Ev @17
    _ZN10AudioGraphC2Ev @18
    _ZN10AudioGraphD1Ev @19
    _ZN10AudioGraphD2Ev @20
    _ZN10AudioTools18LinearInterPolator11incPositionEv @21
    _ZN10AudioTools18LinearInterPolator17changeDestinationEf @22
    _ZN10AudioTools18LinearInterPolatorC1Eff @23
    _ZN10AudioTools18LinearInterPolatorD1Ev @24
    _ZN10HrtfReader10getHrtfSetEPfS0_ @25
    _ZN10HrtfReaderC1Eii8HrtfSize @26
    _ZN10HrtfReaderC2Eii8HrtfSize @27
    _ZN10HrtfReaderD1Ev @28
    _ZN10HrtfReaderD2Ev @29
    _ZN11GrandMaster10s_instanceE @30 DATA
    _ZN11GrandMaster11getInstanceEv @31
    _ZN11GrandMaster11getRefCountEv @32
    _ZN11GrandMaster17getMainAudioGraphEv @33
    _ZN11GrandMaster25registerForAudioProcessorEP18AudioProcessorBase @34
    _ZN11GrandMaster6retainEv @35
    _ZN11GrandMaster7releaseEv @36
    _ZN11GrandMasterC1Ev @37
    _ZN11GrandMasterC2Ev @38
    _ZN11GrandMasterD1Ev @39
    _ZN11GrandMasterD2Ev @40
    _ZN13RefCountedObjC2Ev @41
    _ZN15AmbisonicReverb15internalPrepareEv @42
    _ZN15AmbisonicReverb7processEPPfS1_i @43
    _ZN15AmbisonicReverbC1Ei @44
    _ZN15AmbisonicReverbC2Ei @45
    _ZN15AmbisonicReverbD0Ev @46
    _ZN15AmbisonicReverbD1Ev @47
    _ZN15AmbisonicReverbD2Ev @48
    _ZN16AmbisonicDecoder13deleteBuffersEv @49
    _ZN16AmbisonicDecoder15internalPrepareEv @50
    _ZN16AmbisonicDecoder7processEPPfS1_i @51
    _ZN16AmbisonicDecoderC1Eii @52
    _ZN16AmbisonicDecoderD0Ev @53
    _ZN16AmbisonicDecoderD1Ev @54
    _ZN16AmbisonicEncoder11setDistanceEf @55
    _ZN16AmbisonicEncoder15internalPrepareEv @56
    _ZN16AmbisonicEncoder17computeMultiplierEv @57
    _ZN16AmbisonicEncoder7processEPPfS1_i @58
    _ZN16AmbisonicEncoder8setAngleEf @59
    _ZN16AmbisonicEncoderC1Ei @60
    _ZN16AmbisonicEncoderD0Ev @61
    _ZN16AmbisonicEncoderD1Ev @62
    _ZN16AmbisonicUtility10getDecoderEii @63
    _ZN16AmbisonicUtility10getEncoderEi @64
    _ZN16AmbisonicUtility10s_instanceE @65 DATA
    _ZN16AmbisonicUtility10s_refCountE @66 DATA
    _ZN16AmbisonicUtility11getInstanceEv @67
    _ZN16AmbisonicUtility14retainInstanceEv @68
    _ZN16AmbisonicUtility15containsDecoderEii @69
    _ZN16AmbisonicUtility15containsEncoderEi @70
    _ZN16AmbisonicUtility15getDecoderCountEv @71
    _ZN16AmbisonicUtility15getEncoderCountEv @72
    _ZN16AmbisonicUtility15releaseInstanceEv @73
    _ZN16AmbisonicUtility18getDecoderForOrderEiib @74
    _ZN16AmbisonicUtility18getEncoderForOrderEib @75
    _ZN16AmbisonicUtility18inspectDecoderListEv @76
    _ZN16AmbisonicUtility18inspectEncoderListEv @77
    _ZN16AmbisonicUtilityC1Ev @78
    _ZN16AmbisonicUtilityC2Ev @79
    _ZN16AmbisonicUtilityD1Ev @80
    _ZN16AmbisonicUtilityD2Ev @81
    _ZN17AmbisonicRotation15internalPrepareEv @82
    _ZN17AmbisonicRotation7processEPPfS1_i @83
    _ZN17AmbisonicRotation8setAngleEf @84
    _ZN17AmbisonicRotationC1Ei @85
    _ZN17AmbisonicRotationC2Ei @86
    _ZN17AmbisonicRotationD0Ev @87
    _ZN17AmbisonicRotationD1Ev @88
    _ZN17AmbisonicRotationD2Ev @89
    _ZN17InternalAmbisonic16getHarmonicIndexEi @90
    _ZN17InternalAmbisonic16getHarmonicOrderEi @91
    _ZN17InternalAmbisonicC2Ei @92
    _ZN17InternalAmbisonicD2Ev @93
    _ZN18AudioProcessorBase13setBufferSizeEi @94
    _ZN18AudioProcessorBase13setSampleRateEd @95
    _ZN18AudioProcessorBase15internalPrepareEv @96
    _ZN18AudioProcessorBase7prepareEv @97
    _ZN18AudioProcessorBase9setConfigEid @98
    _ZN18AudioProcessorBaseC1E18AudioProcessorType @99
    _ZN18AudioProcessorBaseC2E18AudioProcessorType @100
    _ZN18AudioProcessorBaseD0Ev @101
    _ZN18AudioProcessorBaseD1Ev @102
    _ZN18AudioProcessorBaseD2Ev @103
    _ZN24AmbisonicBinauralDecoder13deleteBuffersEv @104
    _ZN24AmbisonicBinauralDecoder15internalPrepareEv @105
    _ZN24AmbisonicBinauralDecoder7processEPPfS1_i @106
    _ZN24AmbisonicBinauralDecoderC1Eii8HrtfSize @107
    _ZN24AmbisonicBinauralDecoderC2Eii8HrtfSize @108
    _ZN24AmbisonicBinauralDecoderD0Ev @109
    _ZN24AmbisonicBinauralDecoderD1Ev @110
    _ZN24AmbisonicBinauralDecoderD2Ev @111
    _ZN24InternalAmbisonicDecoder21computeDecodingMatrixEv @112
    _ZN24InternalAmbisonicDecoderC1Eii @113
    _ZN24InternalAmbisonicDecoderC2Eii @114
    _ZN24InternalAmbisonicDecoderD1Ev @115
    _ZN24InternalAmbisonicDecoderD2Ev @116
    _ZN24InternalAmbisonicEncoder21computeEncodingMatrixEv @117
    _ZN24InternalAmbisonicEncoderC1Ei @118
    _ZN24InternalAmbisonicEncoderC2Ei @119
    _ZN24InternalAmbisonicEncoderD1Ev @120
    _ZN24InternalAmbisonicEncoderD2Ev @121
    _ZN9AudioNode16setDestinatationEPS_ @122
    _ZN9AudioNode9setSourceEPS_ @123
    _ZN9AudioNodeC1EP18AudioProcessorBasei @124
    _ZN9AudioNodeC2EP18AudioProcessorBasei @125
    _ZN9AudioNodeD1Ev @126
    _ZN9AudioNodeD2Ev @127
    _ZN9WavLoader16getWavAttributesEPKc @128
    _ZN9WavLoader18openAndCopyWavFileEPKcPf @129
    _ZN9WavLoader8readFileEPKcPf @130
    _ZN9WavLoader9closeFileEv @131
    _ZN9WavLoaderC1Ev @132
    _ZN9WavLoaderC2Ev @133
    _ZN9WavLoaderD1Ev @134
    _ZN9WavLoaderD2Ev @135
    _ZN9__gnu_cxx12__to_xstringISscEET_PFiPT0_jPKS2_PcEjS5_z @136
    _ZN9__gnu_cxx13new_allocatorISt10_List_nodeIP24InternalAmbisonicDecoderEE10deallocateEPS4_j @137
    _ZN9__gnu_cxx13new_allocatorISt10_List_nodeIP24InternalAmbisonicDecoderEE7destroyIS4_EEvPT_ @138
    _ZN9__gnu_cxx13new_allocatorISt10_List_nodeIP24InternalAmbisonicDecoderEE8allocateEjPKv @139
    _ZN9__gnu_cxx13new_allocatorISt10_List_nodeIP24InternalAmbisonicDecoderEE9constructIS4_IRKS3_EEEvPT_DpOT0_ @140
    _ZN9__gnu_cxx13new_allocatorISt10_List_nodeIP24InternalAmbisonicDecoderEEC2Ev @141
    _ZN9__gnu_cxx13new_allocatorISt10_List_nodeIP24InternalAmbisonicDecoderEED2Ev @142
    _ZN9__gnu_cxx13new_allocatorISt10_List_nodeIP24InternalAmbisonicEncoderEE10deallocateEPS4_j @143
    _ZN9__gnu_cxx13new_allocatorISt10_List_nodeIP24InternalAmbisonicEncoderEE7destroyIS4_EEvPT_ @144
    _ZN9__gnu_cxx13new_allocatorISt10_List_nodeIP24InternalAmbisonicEncoderEE8allocateEjPKv @145
    _ZN9__gnu_cxx13new_allocatorISt10_List_nodeIP24InternalAmbisonicEncoderEE9constructIS4_IRKS3_EEEvPT_DpOT0_ @146
    _ZN9__gnu_cxx13new_allocatorISt10_List_nodeIP24InternalAmbisonicEncoderEEC2Ev @147
    _ZN9__gnu_cxx13new_allocatorISt10_List_nodeIP24InternalAmbisonicEncoderEED2Ev @148
    _ZN9__gnu_cxx13new_allocatorISt10_List_nodeIP9AudioNodeEE10deallocateEPS4_j @149
    _ZN9__gnu_cxx13new_allocatorISt10_List_nodeIP9AudioNodeEE7destroyIS4_EEvPT_ @150
    _ZN9__gnu_cxx13new_allocatorISt10_List_nodeIP9AudioNodeEE8allocateEjPKv @151
    _ZN9__gnu_cxx13new_allocatorISt10_List_nodeIP9AudioNodeEE9constructIS4_IS3_EEEvPT_DpOT0_ @152
    _ZN9__gnu_cxx13new_allocatorISt10_List_nodeIP9AudioNodeEEC2Ev @153
    _ZN9__gnu_cxx13new_allocatorISt10_List_nodeIP9AudioNodeEED2Ev @154
    _ZN9__gnu_cxx17__is_null_pointerIcEEbPT_ @155
    _ZNK10AudioGraph12getNodeCountEv @156
    _ZNK13RefCountedObj11getRefCountEv @157
    _ZNK13RefCountedObj6retainEv @158
    _ZNK13RefCountedObj7releaseEv @159
    _ZNK16AmbisonicDecoder10getNumOutsEv @160
    _ZNK16AmbisonicDecoder17getHarmonicNumberEv @161
    _ZNK16AmbisonicDecoder8getOrderEv @162
    _ZNK16AmbisonicEncoder17getEncodingMatrixEv @163
    _ZNK16AmbisonicEncoder17getHarmonicNumberEv @164
    _ZNK17InternalAmbisonic17getHarmonicNumberEv @165
    _ZNK17InternalAmbisonic8getOrderEv @166
    _ZNK18AudioProcessorBase13getBufferSizeEv @167
    _ZNK18AudioProcessorBase13getSampleRateEv @168
    _ZNK18AudioProcessorBase7getTypeEv @169
    _ZNK24AmbisonicBinauralDecoder17getNumOfHarmonicsEv @170
    _ZNK24InternalAmbisonicDecoder17getDecodingMatrixEv @171
    _ZNK24InternalAmbisonicDecoder18getNumberOfOutputsEv @172
    _ZNK24InternalAmbisonicEncoder17getEncodingMatrixEv @173
    _ZNK9AudioNode12getProcessorEv @174
    _ZNK9AudioNode14hasDestinationEv @175
    _ZNK9AudioNode16getDestinatationEv @176
    _ZNK9AudioNode9getNodeIdEv @177
    _ZNK9AudioNode9getSourceEv @178
    _ZNK9AudioNode9hasSourceEv @179
    _ZNK9WavLoader13getNumSamplesEv @180
    _ZNK9WavLoader13getSampleRateEv @181
    _ZNK9WavLoader14getNumChannelsEv @182
    _ZNK9__gnu_cxx13new_allocatorISt10_List_nodeIP24InternalAmbisonicDecoderEE8max_sizeEv @183
    _ZNK9__gnu_cxx13new_allocatorISt10_List_nodeIP24InternalAmbisonicEncoderEE8max_sizeEv @184
    _ZNK9__gnu_cxx13new_allocatorISt10_List_nodeIP9AudioNodeEE8max_sizeEv @185
    _ZNKSt14_List_iteratorIP24InternalAmbisonicDecoderEdeEv @186
    _ZNKSt14_List_iteratorIP24InternalAmbisonicDecoderEneERKS2_ @187
    _ZNKSt14_List_iteratorIP24InternalAmbisonicEncoderEdeEv @188
    _ZNKSt14_List_iteratorIP24InternalAmbisonicEncoderEneERKS2_ @189
    _ZNKSt14_List_iteratorIP9AudioNodeEdeEv @190
    _ZNKSt14_List_iteratorIP9AudioNodeEneERKS2_ @191
    _ZNKSt20_List_const_iteratorIP24InternalAmbisonicDecoderEneERKS2_ @192
    _ZNKSt20_List_const_iteratorIP24InternalAmbisonicEncoderEneERKS2_ @193
    _ZNKSt20_List_const_iteratorIP9AudioNodeEneERKS2_ @194
    _ZNKSt4listIP24InternalAmbisonicDecoderSaIS1_EE3endEv @195
    _ZNKSt4listIP24InternalAmbisonicDecoderSaIS1_EE4sizeEv @196
    _ZNKSt4listIP24InternalAmbisonicDecoderSaIS1_EE5beginEv @197
    _ZNKSt4listIP24InternalAmbisonicEncoderSaIS1_EE3endEv @198
    _ZNKSt4listIP24InternalAmbisonicEncoderSaIS1_EE4sizeEv @199
    _ZNKSt4listIP24InternalAmbisonicEncoderSaIS1_EE5beginEv @200
    _ZNKSt4listIP9AudioNodeSaIS1_EE3endEv @201
    _ZNKSt4listIP9AudioNodeSaIS1_EE4sizeEv @202
    _ZNKSt4listIP9AudioNodeSaIS1_EE5beginEv @203
    _ZNSaISt10_List_nodeIP24InternalAmbisonicDecoderEEC2Ev @204
    _ZNSaISt10_List_nodeIP24InternalAmbisonicDecoderEED2Ev @205
    _ZNSaISt10_List_nodeIP24InternalAmbisonicEncoderEEC2Ev @206
    _ZNSaISt10_List_nodeIP24InternalAmbisonicEncoderEED2Ev @207
    _ZNSaISt10_List_nodeIP9AudioNodeEEC2Ev @208
    _ZNSaISt10_List_nodeIP9AudioNodeEED2Ev @209
    _ZNSs12_S_constructIPcEES0_T_S1_RKSaIcE @210
    _ZNSs12_S_constructIPcEES0_T_S1_RKSaIcESt20forward_iterator_tag @211
    _ZNSs16_S_construct_auxIPcEES0_T_S1_RKSaIcESt12__false_type @212
    _ZNSsC1IPcEET_S1_RKSaIcE @213
    _ZNSt10_List_baseIP24InternalAmbisonicDecoderSaIS1_EE10_List_implC1Ev @214
    _ZNSt10_List_baseIP24InternalAmbisonicDecoderSaIS1_EE10_List_implD1Ev @215
    _ZNSt10_List_baseIP24InternalAmbisonicDecoderSaIS1_EE11_M_get_nodeEv @216
    _ZNSt10_List_baseIP24InternalAmbisonicDecoderSaIS1_EE11_M_put_nodeEPSt10_List_nodeIS1_E @217
    _ZNSt10_List_baseIP24InternalAmbisonicDecoderSaIS1_EE21_M_get_Node_allocatorEv @218
    _ZNSt10_List_baseIP24InternalAmbisonicDecoderSaIS1_EE7_M_initEv @219
    _ZNSt10_List_baseIP24InternalAmbisonicDecoderSaIS1_EE8_M_clearEv @220
    _ZNSt10_List_baseIP24InternalAmbisonicDecoderSaIS1_EEC2Ev @221
    _ZNSt10_List_baseIP24InternalAmbisonicDecoderSaIS1_EED2Ev @222
    _ZNSt10_List_baseIP24InternalAmbisonicEncoderSaIS1_EE10_List_implC1Ev @223
    _ZNSt10_List_baseIP24InternalAmbisonicEncoderSaIS1_EE10_List_implD1Ev @224
    _ZNSt10_List_baseIP24InternalAmbisonicEncoderSaIS1_EE11_M_get_nodeEv @225
    _ZNSt10_List_baseIP24InternalAmbisonicEncoderSaIS1_EE11_M_put_nodeEPSt10_List_nodeIS1_E @226
    _ZNSt10_List_baseIP24InternalAmbisonicEncoderSaIS1_EE21_M_get_Node_allocatorEv @227
    _ZNSt10_List_baseIP24InternalAmbisonicEncoderSaIS1_EE7_M_initEv @228
    _ZNSt10_List_baseIP24InternalAmbisonicEncoderSaIS1_EE8_M_clearEv @229
    _ZNSt10_List_baseIP24InternalAmbisonicEncoderSaIS1_EEC2Ev @230
    _ZNSt10_List_baseIP24InternalAmbisonicEncoderSaIS1_EED2Ev @231
    _ZNSt10_List_baseIP9AudioNodeSaIS1_EE10_List_implC1Ev @232
    _ZNSt10_List_baseIP9AudioNodeSaIS1_EE10_List_implD1Ev @233
    _ZNSt10_List_baseIP9AudioNodeSaIS1_EE11_M_get_nodeEv @234
    _ZNSt10_List_baseIP9AudioNodeSaIS1_EE11_M_put_nodeEPSt10_List_nodeIS1_E @235
    _ZNSt10_List_baseIP9AudioNodeSaIS1_EE21_M_get_Node_allocatorEv @236
    _ZNSt10_List_baseIP9AudioNodeSaIS1_EE7_M_initEv @237
    _ZNSt10_List_baseIP9AudioNodeSaIS1_EE8_M_clearEv @238
    _ZNSt10_List_baseIP9AudioNodeSaIS1_EEC2Ev @239
    _ZNSt10_List_baseIP9AudioNodeSaIS1_EED2Ev @240
    _ZNSt10_List_nodeIP24InternalAmbisonicDecoderEC1IIRKS1_EEEDpOT_ @241
    _ZNSt10_List_nodeIP24InternalAmbisonicEncoderEC1IIRKS1_EEEDpOT_ @242
    _ZNSt10_List_nodeIP9AudioNodeEC1IIS1_EEEDpOT_ @243
    _ZNSt14_List_iteratorIP24InternalAmbisonicDecoderEC1EPNSt8__detail15_List_node_baseE @244
    _ZNSt14_List_iteratorIP24InternalAmbisonicDecoderEppEi @245
    _ZNSt14_List_iteratorIP24InternalAmbisonicDecoderEppEv @246
    _ZNSt14_List_iteratorIP24InternalAmbisonicEncoderEC1EPNSt8__detail15_List_node_baseE @247
    _ZNSt14_List_iteratorIP24InternalAmbisonicEncoderEppEi @248
    _ZNSt14_List_iteratorIP24InternalAmbisonicEncoderEppEv @249
    _ZNSt14_List_iteratorIP9AudioNodeEC1EPNSt8__detail15_List_node_baseE @250
    _ZNSt14_List_iteratorIP9AudioNodeEppEi @251
    _ZNSt14_List_iteratorIP9AudioNodeEppEv @252
    _ZNSt20_List_const_iteratorIP24InternalAmbisonicDecoderEC1EPKNSt8__detail15_List_node_baseE @253
    _ZNSt20_List_const_iteratorIP24InternalAmbisonicDecoderEppEv @254
    _ZNSt20_List_const_iteratorIP24InternalAmbisonicEncoderEC1EPKNSt8__detail15_List_node_baseE @255
    _ZNSt20_List_const_iteratorIP24InternalAmbisonicEncoderEppEv @256
    _ZNSt20_List_const_iteratorIP9AudioNodeEC1EPKNSt8__detail15_List_node_baseE @257
    _ZNSt20_List_const_iteratorIP9AudioNodeEppEv @258
    _ZNSt4listIP24InternalAmbisonicDecoderSaIS1_EE14_M_create_nodeIIRKS1_EEEPSt10_List_nodeIS1_EDpOT_ @259
    _ZNSt4listIP24InternalAmbisonicDecoderSaIS1_EE3endEv @260
    _ZNSt4listIP24InternalAmbisonicDecoderSaIS1_EE5beginEv @261
    _ZNSt4listIP24InternalAmbisonicDecoderSaIS1_EE6removeERKS1_ @262
    _ZNSt4listIP24InternalAmbisonicDecoderSaIS1_EE8_M_eraseESt14_List_iteratorIS1_E @263
    _ZNSt4listIP24InternalAmbisonicDecoderSaIS1_EE9_M_insertIIRKS1_EEEvSt14_List_iteratorIS1_EDpOT_ @264
    _ZNSt4listIP24InternalAmbisonicDecoderSaIS1_EE9push_backERKS1_ @265
    _ZNSt4listIP24InternalAmbisonicDecoderSaIS1_EEC1Ev @266
    _ZNSt4listIP24InternalAmbisonicDecoderSaIS1_EED1Ev @267
    _ZNSt4listIP24InternalAmbisonicEncoderSaIS1_EE14_M_create_nodeIIRKS1_EEEPSt10_List_nodeIS1_EDpOT_ @268
    _ZNSt4listIP24InternalAmbisonicEncoderSaIS1_EE3endEv @269
    _ZNSt4listIP24InternalAmbisonicEncoderSaIS1_EE5beginEv @270
    _ZNSt4listIP24InternalAmbisonicEncoderSaIS1_EE5clearEv @271
    _ZNSt4listIP24InternalAmbisonicEncoderSaIS1_EE6removeERKS1_ @272
    _ZNSt4listIP24InternalAmbisonicEncoderSaIS1_EE8_M_eraseESt14_List_iteratorIS1_E @273
    _ZNSt4listIP24InternalAmbisonicEncoderSaIS1_EE9_M_insertIIRKS1_EEEvSt14_List_iteratorIS1_EDpOT_ @274
    _ZNSt4listIP24InternalAmbisonicEncoderSaIS1_EE9push_backERKS1_ @275
    _ZNSt4listIP24InternalAmbisonicEncoderSaIS1_EEC1Ev @276
    _ZNSt4listIP24InternalAmbisonicEncoderSaIS1_EED1Ev @277
    _ZNSt4listIP9AudioNodeSaIS1_EE14_M_create_nodeIIS1_EEEPSt10_List_nodeIS1_EDpOT_ @278
    _ZNSt4listIP9AudioNodeSaIS1_EE3endEv @279
    _ZNSt4listIP9AudioNodeSaIS1_EE5beginEv @280
    _ZNSt4listIP9AudioNodeSaIS1_EE6removeERKS1_ @281
    _ZNSt4listIP9AudioNodeSaIS1_EE8_M_eraseESt14_List_iteratorIS1_E @282
    _ZNSt4listIP9AudioNodeSaIS1_EE9_M_insertIIS1_EEEvSt14_List_iteratorIS1_EDpOT_ @283
    _ZNSt4listIP9AudioNodeSaIS1_EE9push_backEOS1_ @284
    _ZNSt4listIP9AudioNodeSaIS1_EEC1Ev @285
    _ZNSt4listIP9AudioNodeSaIS1_EED1Ev @286
    _ZSt10__distanceIPcENSt15iterator_traitsIT_E15difference_typeES2_S2_St26random_access_iterator_tag @287
    _ZSt10__distanceISt20_List_const_iteratorIP24InternalAmbisonicDecoderEENSt15iterator_traitsIT_E15difference_typeES5_S5_St18input_iterator_tag @288
    _ZSt10__distanceISt20_List_const_iteratorIP24InternalAmbisonicEncoderEENSt15iterator_traitsIT_E15difference_typeES5_S5_St18input_iterator_tag @289
    _ZSt10__distanceISt20_List_const_iteratorIP9AudioNodeEENSt15iterator_traitsIT_E15difference_typeES5_S5_St18input_iterator_tag @290
    _ZSt11__addressofIKP24InternalAmbisonicDecoderEPT_RS3_ @291
    _ZSt11__addressofIKP24InternalAmbisonicEncoderEPT_RS3_ @292
    _ZSt11__addressofIKP9AudioNodeEPT_RS3_ @293
    _ZSt11__addressofIP24InternalAmbisonicDecoderEPT_RS2_ @294
    _ZSt11__addressofIP24InternalAmbisonicEncoderEPT_RS2_ @295
    _ZSt11__addressofIP9AudioNodeEPT_RS2_ @296
    _ZSt19__iterator_categoryIPcENSt15iterator_traitsIT_E17iterator_categoryERKS2_ @297
    _ZSt19__iterator_categoryISt20_List_const_iteratorIP24InternalAmbisonicDecoderEENSt15iterator_traitsIT_E17iterator_categoryERKS5_ @298
    _ZSt19__iterator_categoryISt20_List_const_iteratorIP24InternalAmbisonicEncoderEENSt15iterator_traitsIT_E17iterator_categoryERKS5_ @299
    _ZSt19__iterator_categoryISt20_List_const_iteratorIP9AudioNodeEENSt15iterator_traitsIT_E17iterator_categoryERKS5_ @300
    _ZSt4moveIRP9AudioNodeEONSt16remove_referenceIT_E4typeEOS4_ @301
    _ZSt7forwardIP9AudioNodeEOT_RNSt16remove_referenceIS2_E4typeE @302
    _ZSt7forwardIRKP24InternalAmbisonicDecoderEOT_RNSt16remove_referenceIS4_E4typeE @303
    _ZSt7forwardIRKP24InternalAmbisonicEncoderEOT_RNSt16remove_referenceIS4_E4typeE @304
    _ZSt8distanceIPcENSt15iterator_traitsIT_E15difference_typeES2_S2_ @305
    _ZSt8distanceISt20_List_const_iteratorIP24InternalAmbisonicDecoderEENSt15iterator_traitsIT_E15difference_typeES5_S5_ @306
    _ZSt8distanceISt20_List_const_iteratorIP24InternalAmbisonicEncoderEENSt15iterator_traitsIT_E15difference_typeES5_S5_ @307
    _ZSt8distanceISt20_List_const_iteratorIP9AudioNodeEENSt15iterator_traitsIT_E15difference_typeES5_S5_ @308
    _ZSt9to_stringi @309
    _ZTI13RefCountedObj @310 DATA
    _ZTI15AmbisonicReverb @311 DATA
    _ZTI16AmbisonicDecoder @312 DATA
    _ZTI16AmbisonicEncoder @313 DATA
    _ZTI17AmbisonicRotation @314 DATA
    _ZTI17InternalAmbisonic @315 DATA
    _ZTI18AudioProcessorBase @316 DATA
    _ZTI24AmbisonicBinauralDecoder @317 DATA
    _ZTS13RefCountedObj @318 DATA
    _ZTS15AmbisonicReverb @319 DATA
    _ZTS16AmbisonicDecoder @320 DATA
    _ZTS16AmbisonicEncoder @321 DATA
    _ZTS17AmbisonicRotation @322 DATA
    _ZTS17InternalAmbisonic @323 DATA
    _ZTS18AudioProcessorBase @324 DATA
    _ZTS24AmbisonicBinauralDecoder @325 DATA
    _ZTV15AmbisonicReverb @326 DATA
    _ZTV16AmbisonicDecoder @327 DATA
    _ZTV16AmbisonicEncoder @328 DATA
    _ZTV17AmbisonicRotation @329 DATA
    _ZTV18AudioProcessorBase @330 DATA
    _ZTV24AmbisonicBinauralDecoder @331 DATA
    _ZnwjPv @332
    _nm__s_float @333 DATA
    _nm__s_signal @334 DATA
    ambiToBinaural_tilde_setup @335
    ambisonicReverb_tilde_setup @336
    binaural_tilde_setup @337
    decoder_tilde_setup @338
    encoder_tilde_setup @339
    libStat_setup @340
    rotator_tilde_setup @341
    wavPlayer_tilde_setup @342
